; Function Attrs: nounwind sspstrong uwtable
define internal fastcc void @dump_output(ptr noundef nonnull captures(none) initializes((0, 8), (16, 32), (76, 80), (88, 104)) %0, i64 noundef %1, i64 noundef %2, i64 noundef %3, i64 noundef %4) unnamed_addr #0 {
  store i64 %1, ptr %0, align 8, !tbaa !15
  %6 = getelementptr inbounds nuw i8, ptr %0, i64 72
  %7 = load i8, ptr %6, align 8
  %8 = and i8 %7, -3
  store i8 %8, ptr %6, align 8
  %9 = getelementptr inbounds nuw i8, ptr %0, i64 96
  store i64 0, ptr %9, align 8, !tbaa !16
  %10 = icmp eq i64 %1, 0
  %11 = and i64 %1, 7
  %12 = icmp ne i64 %11, 0
  %13 = or i1 %10, %12
  br i1 %13, label %rb_type.exit.thread, label %rb_type.exit

rb_type.exit:                                     ; preds = %5
  %14 = inttoptr i64 %1 to ptr
  %15 = load i64, ptr %14, align 8, !tbaa !17
  %16 = and i64 %15, 31
  %17 = icmp eq i64 %16, 5
  br i1 %17, label %28, label %rb_type.exit.thread

rb_type.exit.thread:                              ; preds = %5, %rb_type.exit
  %18 = tail call i64 @rb_io_get_io(i64 noundef %1) #12
  %19 = tail call i64 @rb_io_get_write_io(i64 noundef %18) #12
  %20 = getelementptr inbounds nuw i8, ptr %0, i64 8
  store i64 %19, ptr %20, align 8, !tbaa !19
  %21 = tail call i64 @rb_io_flush(i64 noundef %19) #12
  %22 = load i64, ptr %20, align 8, !tbaa !19
  %23 = tail call i64 @rb_io_taint_check(i64 noundef %22) #12
  %24 = inttoptr i64 %23 to ptr
  %25 = getelementptr inbounds nuw i8, ptr %24, i64 16
  %26 = load ptr, ptr %25, align 8, !tbaa !20
  tail call void @rb_io_check_closed(ptr noundef %26) #12
  %27 = tail call ptr @rb_io_stdio_file(ptr noundef %26) #12
  br label %28

28:                                               ; preds = %rb_type.exit, %rb_type.exit.thread
  %.sink33 = phi ptr [ %27, %rb_type.exit.thread ], [ null, %rb_type.exit ]
  %.sink = phi i64 [ 0, %rb_type.exit.thread ], [ %1, %rb_type.exit ]
  %29 = getelementptr inbounds nuw i8, ptr %0, i64 24
  store ptr %.sink33, ptr %29, align 8, !tbaa !23
  %30 = getelementptr inbounds nuw i8, ptr %0, i64 16
  store i64 %.sink, ptr %30, align 8, !tbaa !24
  %31 = icmp eq i64 %2, 20
  br i1 %31, label %32, label %35

32:                                               ; preds = %28
  %33 = load i8, ptr %6, align 8
  %34 = or i8 %33, 2
  store i8 %34, ptr %6, align 8
  br label %35

35:                                               ; preds = %32, %28
  %36 = and i64 %3, -5
  %.not = icmp eq i64 %36, 0
  %37 = getelementptr inbounds nuw i8, ptr %0, i64 76
  br i1 %.not, label %45, label %38

38:                                               ; preds = %35
  store i32 1, ptr %37, align 4, !tbaa !25
  %39 = and i64 %3, 1
  %.not.i25 = icmp eq i64 %39, 0
  br i1 %.not.i25, label %42, label %40

40:                                               ; preds = %38
  %41 = ashr i64 %3, 1
  br label %rb_num2ull_inline.exit

42:                                               ; preds = %38
  %43 = tail call i64 @rb_num2ull(i64 noundef %3) #12
  br label %rb_num2ull_inline.exit

rb_num2ull_inline.exit:                           ; preds = %40, %42
  %.0.i26 = phi i64 [ %41, %40 ], [ %43, %42 ]
  %44 = getelementptr inbounds nuw i8, ptr %0, i64 80
  store i64 %.0.i26, ptr %44, align 8, !tbaa !27
  br label %46

45:                                               ; preds = %35
  store i32 0, ptr %37, align 4, !tbaa !25
  br label %46

46:                                               ; preds = %45, %rb_num2ull_inline.exit
  %47 = and i64 %4, -5
  %.not31 = icmp eq i64 %47, 0
  br i1 %.not31, label %rb_num2ull_inline.exit29, label %48

48:                                               ; preds = %46
  %49 = and i64 %4, 1
  %.not.i27 = icmp eq i64 %49, 0
  br i1 %.not.i27, label %52, label %50

50:                                               ; preds = %48
  %51 = ashr i64 %4, 1
  br label %rb_num2ull_inline.exit29

52:                                               ; preds = %48
  %53 = tail call i64 @rb_num2ull(i64 noundef %4) #12
  br label %rb_num2ull_inline.exit29

rb_num2ull_inline.exit29:                         ; preds = %52, %50, %46
  %54 = phi i64 [ 0, %46 ], [ %51, %50 ], [ %53, %52 ]
  %55 = getelementptr inbounds nuw i8, ptr %0, i64 88
  store i64 %54, ptr %55, align 8, !tbaa !26
  ret void
}